target datalayout = "e-m:e-p270:32:32-p271:32:32-p272:64:64-i64:64-i128:128-f80:128-n8:16:32:64-S128"
target triple = "x86_64-pc-linux-gnu"

%struct.cs_sparse = type { i32, i32, i32, ptr, ptr, ptr, i32 }

; Function Attrs: nounwind uwtable
define i32 @cs_lsolve(ptr noundef %0, ptr noundef %1) #0 {
  %3 = alloca i32, align 4
  %4 = alloca ptr, align 8
  %5 = alloca ptr, align 8
  %6 = alloca i32, align 4
  %7 = alloca i32, align 4
  %8 = alloca i32, align 4
  %9 = alloca ptr, align 8
  %10 = alloca ptr, align 8
  %11 = alloca ptr, align 8
  %12 = alloca i32, align 4
  store ptr %0, ptr %4, align 8, !tbaa !3
  store ptr %1, ptr %5, align 8, !tbaa !8
  call void @llvm.lifetime.start.p0(i64 4, ptr %6) #3
  call void @llvm.lifetime.start.p0(i64 4, ptr %7) #3
  call void @llvm.lifetime.start.p0(i64 4, ptr %8) #3
  call void @llvm.lifetime.start.p0(i64 8, ptr %9) #3
  call void @llvm.lifetime.start.p0(i64 8, ptr %10) #3
  call void @llvm.lifetime.start.p0(i64 8, ptr %11) #3
  %13 = load ptr, ptr %4, align 8, !tbaa !3
  %14 = icmp ne ptr %13, null
  br i1 %14, label %15, label %23

15:                                               ; preds = %2
  %16 = load ptr, ptr %4, align 8, !tbaa !3
  %17 = getelementptr inbounds nuw %struct.cs_sparse, ptr %16, i32 0, i32 6
  %18 = load i32, ptr %17, align 8, !tbaa !10
  %19 = icmp eq i32 %18, -1
  br i1 %19, label %20, label %23

20:                                               ; preds = %15
  %21 = load ptr, ptr %5, align 8, !tbaa !8
  %22 = icmp ne ptr %21, null
  br i1 %22, label %24, label %23

23:                                               ; preds = %20, %15, %2
  store i32 0, ptr %3, align 4
  store i32 1, ptr %12, align 4
  br label %102

24:                                               ; preds = %20
  %25 = load ptr, ptr %4, align 8, !tbaa !3
  %26 = getelementptr inbounds nuw %struct.cs_sparse, ptr %25, i32 0, i32 2
  %27 = load i32, ptr %26, align 8, !tbaa !14
  store i32 %27, ptr %8, align 4, !tbaa !15
  %28 = load ptr, ptr %4, align 8, !tbaa !3
  %29 = getelementptr inbounds nuw %struct.cs_sparse, ptr %28, i32 0, i32 3
  %30 = load ptr, ptr %29, align 8, !tbaa !16
  store ptr %30, ptr %9, align 8, !tbaa !17
  %31 = load ptr, ptr %4, align 8, !tbaa !3
  %32 = getelementptr inbounds nuw %struct.cs_sparse, ptr %31, i32 0, i32 4
  %33 = load ptr, ptr %32, align 8, !tbaa !18
  store ptr %33, ptr %10, align 8, !tbaa !17
  %34 = load ptr, ptr %4, align 8, !tbaa !3
  %35 = getelementptr inbounds nuw %struct.cs_sparse, ptr %34, i32 0, i32 5
  %36 = load ptr, ptr %35, align 8, !tbaa !19
  store ptr %36, ptr %11, align 8, !tbaa !8
  store i32 0, ptr %7, align 4, !tbaa !15
  br label %37

37:                                               ; preds = %98, %24
  %38 = load i32, ptr %7, align 4, !tbaa !15
  %39 = load i32, ptr %8, align 4, !tbaa !15
  %40 = icmp slt i32 %38, %39
  br i1 %40, label %41, label %101

41:                                               ; preds = %37
  %42 = load ptr, ptr %11, align 8, !tbaa !8
  %43 = load ptr, ptr %9, align 8, !tbaa !17
  %44 = load i32, ptr %7, align 4, !tbaa !15
  %45 = sext i32 %44 to i64
  %46 = getelementptr inbounds i32, ptr %43, i64 %45
  %47 = load i32, ptr %46, align 4, !tbaa !15
  %48 = sext i32 %47 to i64
  %49 = getelementptr inbounds double, ptr %42, i64 %48
  %50 = load double, ptr %49, align 8, !tbaa !20
  %51 = load ptr, ptr %5, align 8, !tbaa !8
  %52 = load i32, ptr %7, align 4, !tbaa !15
  %53 = sext i32 %52 to i64
  %54 = getelementptr inbounds double, ptr %51, i64 %53
  %55 = load double, ptr %54, align 8, !tbaa !20
  %56 = fdiv double %55, %50
  store double %56, ptr %54, align 8, !tbaa !20
  %57 = load ptr, ptr %9, align 8, !tbaa !17
  %58 = load i32, ptr %7, align 4, !tbaa !15
  %59 = sext i32 %58 to i64
  %60 = getelementptr inbounds i32, ptr %57, i64 %59
  %61 = load i32, ptr %60, align 4, !tbaa !15
  %62 = add nsw i32 %61, 1
  store i32 %62, ptr %6, align 4, !tbaa !15
  br label %63

63:                                               ; preds = %94, %41
  %64 = load i32, ptr %6, align 4, !tbaa !15
  %65 = load ptr, ptr %9, align 8, !tbaa !17
  %66 = load i32, ptr %7, align 4, !tbaa !15
  %67 = add nsw i32 %66, 1
  %68 = sext i32 %67 to i64
  %69 = getelementptr inbounds i32, ptr %65, i64 %68
  %70 = load i32, ptr %69, align 4, !tbaa !15
  %71 = icmp slt i32 %64, %70
  br i1 %71, label %72, label %97

72:                                               ; preds = %63
  %73 = load ptr, ptr %11, align 8, !tbaa !8
  %74 = load i32, ptr %6, align 4, !tbaa !15
  %75 = sext i32 %74 to i64
  %76 = getelementptr inbounds double, ptr %73, i64 %75
  %77 = load double, ptr %76, align 8, !tbaa !20
  %78 = load ptr, ptr %5, align 8, !tbaa !8
  %79 = load i32, ptr %7, align 4, !tbaa !15
  %80 = sext i32 %79 to i64
  %81 = getelementptr inbounds double, ptr %78, i64 %80
  %82 = load double, ptr %81, align 8, !tbaa !20
  %83 = load ptr, ptr %5, align 8, !tbaa !8
  %84 = load ptr, ptr %10, align 8, !tbaa !17
  %85 = load i32, ptr %6, align 4, !tbaa !15
  %86 = sext i32 %85 to i64
  %87 = getelementptr inbounds i32, ptr %84, i64 %86
  %88 = load i32, ptr %87, align 4, !tbaa !15
  %89 = sext i32 %88 to i64
  %90 = getelementptr inbounds double, ptr %83, i64 %89
  %91 = load double, ptr %90, align 8, !tbaa !20
  %92 = fneg double %77
  %93 = call double @llvm.fmuladd.f64(double %92, double %82, double %91)
  store double %93, ptr %90, align 8, !tbaa !20
  br label %94

94:                                               ; preds = %72
  %95 = load i32, ptr %6, align 4, !tbaa !15
  %96 = add nsw i32 %95, 1
  store i32 %96, ptr %6, align 4, !tbaa !15
  br label %63, !llvm.loop !22

97:                                               ; preds = %63
  br label %98

98:                                               ; preds = %97
  %99 = load i32, ptr %7, align 4, !tbaa !15
  %100 = add nsw i32 %99, 1
  store i32 %100, ptr %7, align 4, !tbaa !15
  br label %37, !llvm.loop !24

101:                                              ; preds = %37
  store i32 1, ptr %3, align 4
  store i32 1, ptr %12, align 4
  br label %102

102:                                              ; preds = %101, %23
  call void @llvm.lifetime.end.p0(i64 8, ptr %11) #3
  call void @llvm.lifetime.end.p0(i64 8, ptr %10) #3
  call void @llvm.lifetime.end.p0(i64 8, ptr %9) #3
  call void @llvm.lifetime.end.p0(i64 4, ptr %8) #3
  call void @llvm.lifetime.end.p0(i64 4, ptr %7) #3
  call void @llvm.lifetime.end.p0(i64 4, ptr %6) #3
  %103 = load i32, ptr %3, align 4
  ret i32 %103
}

; Function Attrs: nocallback nofree nosync nounwind willreturn memory(argmem: readwrite)
declare void @llvm.lifetime.start.p0(i64 immarg, ptr captures(none)) #1

; Function Attrs: nocallback nofree nosync nounwind speculatable willreturn memory(none)
declare double @llvm.fmuladd.f64(double, double, double) #2

; Function Attrs: nocallback nofree nosync nounwind willreturn memory(argmem: readwrite)
declare void @llvm.lifetime.end.p0(i64 immarg, ptr captures(none)) #1


!llvm.module.flags = !{!0, !1, !2}

!0 = !{i32 1, !"wchar_size", i32 4}
!1 = !{i32 8, !"PIC Level", i32 2}
!2 = !{i32 7, !"uwtable", i32 2}
!3 = !{!4, !4, i64 0}
!4 = !{!"p1 _ZTS9cs_sparse", !5, i64 0}
!5 = !{!"any pointer", !6, i64 0}
!6 = !{!"omnipotent char", !7, i64 0}
!7 = !{!"Simple C/C++ TBAA"}
!8 = !{!9, !9, i64 0}
!9 = !{!"p1 double", !5, i64 0}
!10 = !{!11, !12, i64 40}
!11 = !{!"cs_sparse", !12, i64 0, !12, i64 4, !12, i64 8, !13, i64 16, !13, i64 24, !9, i64 32, !12, i64 40}
!12 = !{!"int", !6, i64 0}
!13 = !{!"p1 int", !5, i64 0}
!14 = !{!11, !12, i64 8}
!15 = !{!12, !12, i64 0}
!16 = !{!11, !13, i64 16}
!17 = !{!13, !13, i64 0}
!18 = !{!11, !13, i64 24}
!19 = !{!11, !9, i64 32}
!20 = !{!21, !21, i64 0}
!21 = !{!"double", !6, i64 0}
!22 = distinct !{!22, !23}
!23 = !{!"llvm.loop.mustprogress"}
!24 = distinct !{!24, !23}
